; Function Attrs: nounwind uwtable
define range(i32 0, 2) i32 @ossl_ml_kem_parse_private_key(ptr noundef %0, i64 noundef %1, ptr noundef %2) local_unnamed_addr #0 {
  %4 = icmp eq ptr %2, null
  br i1 %4, label %43, label %5

5:                                                ; preds = %3
  %6 = getelementptr inbounds nuw i8, ptr %2, i64 64
  %7 = load ptr, ptr %6, align 8, !tbaa !3
  %.not = icmp eq ptr %7, null
  br i1 %.not, label %8, label %43

8:                                                ; preds = %5
  %9 = getelementptr inbounds nuw i8, ptr %2, i64 176
  %10 = load ptr, ptr %9, align 8, !tbaa !25
  %.not18 = icmp eq ptr %10, null
  br i1 %.not18, label %11, label %43

11:                                               ; preds = %8
  %12 = load ptr, ptr %2, align 8, !tbaa !14
  %13 = getelementptr inbounds nuw i8, ptr %12, i64 8
  %14 = load i64, ptr %13, align 8, !tbaa !27
  %.not19 = icmp eq i64 %1, %14
  br i1 %.not19, label %15, label %43

15:                                               ; preds = %11
  %16 = tail call ptr @EVP_MD_CTX_new() #13
  %17 = icmp eq ptr %16, null
  br i1 %17, label %43, label %18

18:                                               ; preds = %15
  %19 = getelementptr inbounds nuw i8, ptr %12, i64 16
  %20 = load i64, ptr %19, align 8, !tbaa !33
  %21 = tail call noalias ptr @CRYPTO_malloc(i64 noundef %20, ptr noundef nonnull @.str, i32 noundef 1798) #13
  %22 = icmp eq ptr %21, null
  br i1 %22, label %.thread, label %23

23:                                               ; preds = %18
  %24 = load ptr, ptr %2, align 8, !tbaa !14
  %25 = getelementptr inbounds nuw i8, ptr %24, i64 72
  %26 = load i32, ptr %25, align 8, !tbaa !29
  %27 = getelementptr inbounds nuw i8, ptr %2, i64 112
  tail call void @llvm.memset.p0.i64(ptr noundef nonnull align 8 dereferenceable(64) %27, i8 0, i64 64, i1 false)
  %28 = getelementptr inbounds nuw i8, ptr %2, i64 48
  store ptr %27, ptr %28, align 8, !tbaa !31
  %29 = getelementptr inbounds nuw i8, ptr %2, i64 144
  %30 = getelementptr inbounds nuw i8, ptr %2, i64 56
  store ptr %29, ptr %30, align 8, !tbaa !32
  %31 = getelementptr inbounds nuw i8, ptr %2, i64 88
  %32 = getelementptr inbounds nuw i8, ptr %2, i64 96
  store i64 0, ptr %32, align 8
  store ptr %21, ptr %6, align 8, !tbaa !3
  %33 = sext i32 %26 to i64
  %34 = getelementptr inbounds %struct.ossl_ml_kem_scalar_st, ptr %21, i64 %33
  %35 = getelementptr inbounds nuw i8, ptr %2, i64 72
  store ptr %34, ptr %35, align 8, !tbaa !30
  %36 = mul nsw i32 %26, %26
  %37 = zext nneg i32 %36 to i64
  %38 = getelementptr inbounds nuw %struct.ossl_ml_kem_scalar_st, ptr %34, i64 %37
  %39 = getelementptr inbounds nuw i8, ptr %2, i64 80
  store ptr %38, ptr %39, align 8, !tbaa !13
  %40 = getelementptr inbounds %struct.ossl_ml_kem_scalar_st, ptr %38, i64 %33
  store ptr %40, ptr %31, align 8, !tbaa !34
  %41 = tail call fastcc i32 @parse_prvkey(ptr noundef %0, ptr noundef %16, ptr noundef %2)
  %.not21 = icmp eq i32 %41, 0
  br i1 %.not21, label %.thread, label %42

.thread:                                          ; preds = %18, %23
  tail call void @ossl_ml_kem_key_reset(ptr noundef nonnull %2)
  br label %42

42:                                               ; preds = %.thread, %23
  %.026 = phi i32 [ 0, %.thread ], [ 1, %23 ]
  tail call void @EVP_MD_CTX_free(ptr noundef nonnull %16) #13
  br label %43

43:                                               ; preds = %11, %15, %3, %5, %8, %42
  %.015 = phi i32 [ %.026, %42 ], [ 0, %8 ], [ 0, %5 ], [ 0, %3 ], [ 0, %15 ], [ 0, %11 ]
  ret i32 %.015
}